target datalayout = "e-m:e-p270:32:32-p271:32:32-p272:64:64-i64:64-i128:128-f80:128-n8:16:32:64-S128"
target triple = "x86_64-pc-linux-gnu"

%struct.Curl_cftype = type { ptr, i32, i32, ptr, ptr, ptr, ptr, ptr, ptr, ptr, ptr, ptr, ptr, ptr, ptr, ptr }
%struct.curltime = type { i64, i32 }
%struct.Curl_easy = type { i32, i64, i64, ptr, %struct.Curl_llist_node, %struct.Curl_llist_node, i32, i32, %struct.Curl_message, %struct.easy_pollset, %struct.Names, ptr, ptr, ptr, ptr, %struct.SingleRequest, %struct.UserDefined, ptr, ptr, ptr, %struct.Progress, %struct.UrlState, ptr, %struct.PureInfo, %struct.curl_tlssessioninfo }
%struct.Curl_llist_node = type { ptr, ptr, ptr, ptr }
%struct.Curl_message = type { %struct.Curl_llist_node, %struct.CURLMsg }
%struct.CURLMsg = type { i32, ptr, %union.anon }
%union.anon = type { ptr }
%struct.easy_pollset = type { [5 x i32], i32, [5 x i8] }
%struct.Names = type { ptr, i32 }
%struct.SingleRequest = type <{ i64, i64, i64, i64, %struct.curltime, i32, i32, i32, i32, i64, i32, i32, i8, i8, [2 x i8], i32, ptr, ptr, %struct.bufq, i64, i64, ptr, ptr, %union.anon.0, ptr, i8, i32, [3 x i8] }>
%struct.bufq = type { ptr, ptr, ptr, ptr, i64, i64, i64, i32 }
%union.anon.0 = type { ptr }
%struct.UserDefined = type <{ ptr, ptr, ptr, ptr, ptr, ptr, i64, i64, i64, ptr, ptr, i64, ptr, ptr, ptr, ptr, ptr, ptr, ptr, ptr, ptr, ptr, ptr, ptr, ptr, ptr, ptr, ptr, ptr, ptr, ptr, ptr, ptr, ptr, ptr, i64, i64, i64, i64, i64, i64, i64, i64, i64, ptr, ptr, %struct.curl_mimepart, ptr, ptr, ptr, i64, %struct.ssl_config_data, %struct.ssl_config_data, ptr, i16, i8, i8, %struct.ssl_general_config, i32, i32, i32, [4 x i8], ptr, ptr, i64, i32, i8, i8, i8, i8, ptr, ptr, ptr, i32, [4 x i8], [74 x ptr], [8 x ptr], i32, i32, i32, [4 x i8], ptr, i32, [4 x i8], ptr, ptr, ptr, ptr, ptr, i32, i32, i32, i32, i32, i32, i32, i32, i64, ptr, ptr, i64, ptr, i64, ptr, ptr, ptr, ptr, i32, i16, i16, i16, i8, i8, i8, i8, i8, i8, i8, i8, i64, [6 x i8] }>
%struct.curl_mimepart = type { ptr, ptr, i32, i32, ptr, ptr, ptr, ptr, ptr, ptr, ptr, ptr, ptr, ptr, ptr, i64, %struct.mime_state, ptr, %struct.mime_encoder_state, i64 }
%struct.mime_state = type { i32, ptr, i64 }
%struct.mime_encoder_state = type { i64, i64, i64, [256 x i8] }
%struct.ssl_config_data = type { %struct.ssl_primary_config, i64, ptr, ptr, ptr, ptr, ptr, ptr, ptr, i16 }
%struct.ssl_primary_config = type { ptr, ptr, ptr, ptr, ptr, ptr, ptr, ptr, ptr, ptr, ptr, ptr, ptr, ptr, i8, i32, i8, i8 }
%struct.ssl_general_config = type { i32 }
%struct.Progress = type { i64, %struct.pgrs_dir, %struct.pgrs_dir, i64, i64, i32, i32, i64, i64, i64, i64, i64, i64, i64, i64, i64, %struct.curltime, %struct.curltime, %struct.curltime, %struct.curltime, %struct.curltime, [6 x i64], [6 x %struct.curltime], i32, i8 }
%struct.pgrs_dir = type { i64, i64, i64, %struct.pgrs_measure }
%struct.pgrs_measure = type { %struct.curltime, i64 }
%struct.UrlState = type { %struct.curltime, i64, i64, %struct.dynbuf, ptr, i64, ptr, i32, i32, i32, ptr, i32, i64, i32, ptr, %struct.digestdata, %struct.digestdata, %struct.auth, %struct.auth, %struct.Curl_async, ptr, i8, %struct.curltime, %struct.Curl_tree, %struct.Curl_llist, [15 x %struct.time_node], ptr, ptr, i64, i64, i64, i64, [32 x i8], i64, ptr, ptr, ptr, %struct.urlpieces, ptr, ptr, ptr, ptr, ptr, i64, %struct.dynbuf, %struct.Curl_llist, [2 x %struct.curl_header], ptr, i32, ptr, ptr, %struct.store_netrc, %struct.dynamically_allocated_data, i8, i8, i8, i8, i32 }
%struct.digestdata = type { ptr, ptr, ptr, ptr, ptr, ptr, i32, i8, i8 }
%struct.auth = type { i64, i64, i64, i8 }
%struct.Curl_async = type { ptr, ptr, ptr, ptr, i32, i32, i8 }
%struct.Curl_tree = type { ptr, ptr, ptr, ptr, %struct.curltime, ptr }
%struct.time_node = type { %struct.Curl_llist_node, %struct.curltime, i32 }
%struct.urlpieces = type { ptr, ptr, ptr, ptr, ptr, ptr, ptr, ptr }
%struct.dynbuf = type { ptr, i64, i64, i64 }
%struct.Curl_llist = type { ptr, ptr, ptr, i64 }
%struct.curl_header = type { ptr, ptr, i64, i64, i32, ptr }
%struct.store_netrc = type { %struct.dynbuf, ptr, i8 }
%struct.dynamically_allocated_data = type { ptr, ptr, ptr, ptr, ptr, ptr, ptr, ptr, ptr, ptr, ptr, ptr, ptr, ptr }
%struct.PureInfo = type { i32, i32, i32, i64, i64, i64, i64, i64, i64, i64, ptr, ptr, i64, i32, %struct.ip_quadruple, i32, ptr, i32, %struct.curl_certinfo, i32, i8 }
%struct.ip_quadruple = type { [46 x i8], [46 x i8], i32, i32 }
%struct.curl_certinfo = type { i32, ptr }
%struct.curl_tlssessioninfo = type { i32, ptr }
%struct.Curl_cfilter = type { ptr, ptr, ptr, ptr, i32, i8 }
%struct.curl_trc_feat = type { ptr, i32 }
%struct.cf_he_ctx = type { i32, ptr, ptr, i32, [2 x ptr], ptr, %struct.curltime }
%struct.eyeballer = type { ptr, ptr, ptr, i32, ptr, ptr, ptr, i64, %struct.curltime, i64, i32, i32, i32, i8 }

@Curl_cfree = external global ptr, align 8
@.str.24 = private unnamed_addr constant [6 x i8] c"close\00", align 1

; Function Attrs: nounwind uwtable
define internal void @baller_close(ptr noundef %0, ptr noundef %1) #0 {
  %3 = alloca ptr, align 8
  %4 = alloca ptr, align 8
  store ptr %0, ptr %3, align 8, !tbaa !160
  store ptr %1, ptr %4, align 8, !tbaa !10
  %5 = load ptr, ptr %3, align 8, !tbaa !160
  %6 = icmp ne ptr %5, null
  br i1 %6, label %7, label %16

7:                                                ; preds = %2
  %8 = load ptr, ptr %3, align 8, !tbaa !160
  %9 = getelementptr inbounds nuw %struct.eyeballer, ptr %8, i32 0, i32 5
  %10 = load ptr, ptr %9, align 8, !tbaa !148
  %11 = icmp ne ptr %10, null
  br i1 %11, label %12, label %16

12:                                               ; preds = %7
  %13 = load ptr, ptr %3, align 8, !tbaa !160
  %14 = getelementptr inbounds nuw %struct.eyeballer, ptr %13, i32 0, i32 5
  %15 = load ptr, ptr %4, align 8, !tbaa !10
  call void @Curl_conn_cf_discard_chain(ptr noundef %14, ptr noundef %15)
  br label %16

16:                                               ; preds = %12, %7, %2
  ret void
}

; Function Attrs: nounwind uwtable
define internal void @baller_free(ptr noundef %0, ptr noundef %1) #0 {
  %3 = alloca ptr, align 8
  %4 = alloca ptr, align 8
  store ptr %0, ptr %3, align 8, !tbaa !160
  store ptr %1, ptr %4, align 8, !tbaa !10
  %5 = load ptr, ptr %3, align 8, !tbaa !160
  %6 = icmp ne ptr %5, null
  br i1 %6, label %7, label %12

7:                                                ; preds = %2
  %8 = load ptr, ptr %3, align 8, !tbaa !160
  %9 = load ptr, ptr %4, align 8, !tbaa !10
  call void @baller_close(ptr noundef %8, ptr noundef %9)
  %10 = load ptr, ptr @Curl_cfree, align 8, !tbaa !140
  %11 = load ptr, ptr %3, align 8, !tbaa !160
  call void %10(ptr noundef %11)
  br label %12

12:                                               ; preds = %7, %2
  ret void
}

; Function Attrs: nounwind uwtable
define internal void @cf_he_ctx_clear(ptr noundef %0, ptr noundef %1) #0 {
  %3 = alloca ptr, align 8
  %4 = alloca ptr, align 8
  %5 = alloca ptr, align 8
  %6 = alloca i64, align 8
  store ptr %0, ptr %3, align 8, !tbaa !127
  store ptr %1, ptr %4, align 8, !tbaa !10
  call void @llvm.lifetime.start.p0(i64 8, ptr %5) #8
  %7 = load ptr, ptr %3, align 8, !tbaa !127
  %8 = getelementptr inbounds nuw %struct.Curl_cfilter, ptr %7, i32 0, i32 2
  %9 = load ptr, ptr %8, align 8, !tbaa !129
  store ptr %9, ptr %5, align 8, !tbaa !132
  call void @llvm.lifetime.start.p0(i64 8, ptr %6) #8
  br label %10

10:                                               ; preds = %2
  br label %11

11:                                               ; preds = %10
  br label %12

12:                                               ; preds = %11
  br label %13

13:                                               ; preds = %12
  br label %14

14:                                               ; preds = %13
  br label %15

15:                                               ; preds = %14
  store i64 0, ptr %6, align 8, !tbaa !8
  br label %16

16:                                               ; preds = %30, %15
  %17 = load i64, ptr %6, align 8, !tbaa !8
  %18 = icmp ult i64 %17, 2
  br i1 %18, label %19, label %33

19:                                               ; preds = %16
  %20 = load ptr, ptr %5, align 8, !tbaa !132
  %21 = getelementptr inbounds nuw %struct.cf_he_ctx, ptr %20, i32 0, i32 4
  %22 = load i64, ptr %6, align 8, !tbaa !8
  %23 = getelementptr inbounds nuw [2 x ptr], ptr %21, i64 0, i64 %22
  %24 = load ptr, ptr %23, align 8, !tbaa !160
  %25 = load ptr, ptr %4, align 8, !tbaa !10
  call void @baller_free(ptr noundef %24, ptr noundef %25)
  %26 = load ptr, ptr %5, align 8, !tbaa !132
  %27 = getelementptr inbounds nuw %struct.cf_he_ctx, ptr %26, i32 0, i32 4
  %28 = load i64, ptr %6, align 8, !tbaa !8
  %29 = getelementptr inbounds nuw [2 x ptr], ptr %27, i64 0, i64 %28
  store ptr null, ptr %29, align 8, !tbaa !160
  br label %30

30:                                               ; preds = %19
  %31 = load i64, ptr %6, align 8, !tbaa !8
  %32 = add i64 %31, 1
  store i64 %32, ptr %6, align 8, !tbaa !8
  br label %16, !llvm.loop !188

33:                                               ; preds = %16
  %34 = load ptr, ptr %5, align 8, !tbaa !132
  %35 = getelementptr inbounds nuw %struct.cf_he_ctx, ptr %34, i32 0, i32 5
  %36 = load ptr, ptr %35, align 8, !tbaa !147
  %37 = load ptr, ptr %4, align 8, !tbaa !10
  call void @baller_free(ptr noundef %36, ptr noundef %37)
  %38 = load ptr, ptr %5, align 8, !tbaa !132
  %39 = getelementptr inbounds nuw %struct.cf_he_ctx, ptr %38, i32 0, i32 5
  store ptr null, ptr %39, align 8, !tbaa !147
  call void @llvm.lifetime.end.p0(i64 8, ptr %6) #8
  call void @llvm.lifetime.end.p0(i64 8, ptr %5) #8
  ret void
}

; Function Attrs: nounwind uwtable
define internal void @cf_he_close(ptr noundef %0, ptr noundef %1) #0 {
  %3 = alloca ptr, align 8
  %4 = alloca ptr, align 8
  %5 = alloca ptr, align 8
  store ptr %0, ptr %3, align 8, !tbaa !127
  store ptr %1, ptr %4, align 8, !tbaa !10
  call void @llvm.lifetime.start.p0(i64 8, ptr %5) #8
  %6 = load ptr, ptr %3, align 8, !tbaa !127
  %7 = getelementptr inbounds nuw %struct.Curl_cfilter, ptr %6, i32 0, i32 2
  %8 = load ptr, ptr %7, align 8, !tbaa !129
  store ptr %8, ptr %5, align 8, !tbaa !132
  br label %9

9:                                                ; preds = %2
  %10 = load ptr, ptr %4, align 8, !tbaa !10
  %11 = icmp ne ptr %10, null
  br i1 %11, label %12, label %48

12:                                               ; preds = %9
  %13 = load ptr, ptr %4, align 8, !tbaa !10
  %14 = getelementptr inbounds nuw %struct.Curl_easy, ptr %13, i32 0, i32 16
  %15 = getelementptr inbounds nuw %struct.UserDefined, ptr %14, i32 0, i32 119
  %16 = load i64, ptr %15, align 2
  %17 = lshr i64 %16, 31
  %18 = and i64 %17, 1
  %19 = trunc i64 %18 to i32
  %20 = icmp ne i32 %19, 0
  br i1 %20, label %21, label %48

21:                                               ; preds = %12
  %22 = load ptr, ptr %4, align 8, !tbaa !10
  %23 = getelementptr inbounds nuw %struct.Curl_easy, ptr %22, i32 0, i32 21
  %24 = getelementptr inbounds nuw %struct.UrlState, ptr %23, i32 0, i32 50
  %25 = load ptr, ptr %24, align 8, !tbaa !134
  %26 = icmp ne ptr %25, null
  br i1 %26, label %27, label %35

27:                                               ; preds = %21
  %28 = load ptr, ptr %4, align 8, !tbaa !10
  %29 = getelementptr inbounds nuw %struct.Curl_easy, ptr %28, i32 0, i32 21
  %30 = getelementptr inbounds nuw %struct.UrlState, ptr %29, i32 0, i32 50
  %31 = load ptr, ptr %30, align 8, !tbaa !134
  %32 = getelementptr inbounds nuw %struct.curl_trc_feat, ptr %31, i32 0, i32 1
  %33 = load i32, ptr %32, align 8, !tbaa !135
  %34 = icmp sge i32 %33, 1
  br i1 %34, label %35, label %48

35:                                               ; preds = %27, %21
  %36 = load ptr, ptr %3, align 8, !tbaa !127
  %37 = icmp ne ptr %36, null
  br i1 %37, label %38, label %48

38:                                               ; preds = %35
  %39 = load ptr, ptr %3, align 8, !tbaa !127
  %40 = getelementptr inbounds nuw %struct.Curl_cfilter, ptr %39, i32 0, i32 0
  %41 = load ptr, ptr %40, align 8, !tbaa !137
  %42 = getelementptr inbounds nuw %struct.Curl_cftype, ptr %41, i32 0, i32 2
  %43 = load i32, ptr %42, align 4, !tbaa !138
  %44 = icmp sge i32 %43, 1
  br i1 %44, label %45, label %48

45:                                               ; preds = %38
  %46 = load ptr, ptr %4, align 8, !tbaa !10
  %47 = load ptr, ptr %3, align 8, !tbaa !127
  call void (ptr, ptr, ptr, ...) @Curl_trc_cf_infof(ptr noundef %46, ptr noundef %47, ptr noundef @.str.24)
  br label %48

48:                                               ; preds = %45, %38, %35, %27, %12, %9
  br label %49

49:                                               ; preds = %48
  br label %50

50:                                               ; preds = %49
  %51 = load ptr, ptr %3, align 8, !tbaa !127
  %52 = load ptr, ptr %4, align 8, !tbaa !10
  call void @cf_he_ctx_clear(ptr noundef %51, ptr noundef %52)
  %53 = load ptr, ptr %3, align 8, !tbaa !127
  %54 = getelementptr inbounds nuw %struct.Curl_cfilter, ptr %53, i32 0, i32 5
  %55 = load i8, ptr %54, align 4
  %56 = and i8 %55, -2
  %57 = or i8 %56, 0
  store i8 %57, ptr %54, align 4
  %58 = load ptr, ptr %5, align 8, !tbaa !132
  %59 = getelementptr inbounds nuw %struct.cf_he_ctx, ptr %58, i32 0, i32 3
  store i32 0, ptr %59, align 8, !tbaa !143
  %60 = load ptr, ptr %3, align 8, !tbaa !127
  %61 = getelementptr inbounds nuw %struct.Curl_cfilter, ptr %60, i32 0, i32 1
  %62 = load ptr, ptr %61, align 8, !tbaa !151
  %63 = icmp ne ptr %62, null
  br i1 %63, label %64, label %79

64:                                               ; preds = %50
  %65 = load ptr, ptr %3, align 8, !tbaa !127
  %66 = getelementptr inbounds nuw %struct.Curl_cfilter, ptr %65, i32 0, i32 1
  %67 = load ptr, ptr %66, align 8, !tbaa !151
  %68 = getelementptr inbounds nuw %struct.Curl_cfilter, ptr %67, i32 0, i32 0
  %69 = load ptr, ptr %68, align 8, !tbaa !137
  %70 = getelementptr inbounds nuw %struct.Curl_cftype, ptr %69, i32 0, i32 5
  %71 = load ptr, ptr %70, align 8, !tbaa !159
  %72 = load ptr, ptr %3, align 8, !tbaa !127
  %73 = getelementptr inbounds nuw %struct.Curl_cfilter, ptr %72, i32 0, i32 1
  %74 = load ptr, ptr %73, align 8, !tbaa !151
  %75 = load ptr, ptr %4, align 8, !tbaa !10
  call void %71(ptr noundef %74, ptr noundef %75)
  %76 = load ptr, ptr %3, align 8, !tbaa !127
  %77 = getelementptr inbounds nuw %struct.Curl_cfilter, ptr %76, i32 0, i32 1
  %78 = load ptr, ptr %4, align 8, !tbaa !10
  call void @Curl_conn_cf_discard_chain(ptr noundef %77, ptr noundef %78)
  br label %79

79:                                               ; preds = %64, %50
  call void @llvm.lifetime.end.p0(i64 8, ptr %5) #8
  ret void
}