; Function Attrs: nounwind uwtable
define internal void @cf_he_close(ptr noundef %0, ptr noundef %1) #0 {
  %3 = getelementptr inbounds nuw i8, ptr %0, i64 16
  %4 = load ptr, ptr %3, align 8, !tbaa !105
  %.not = icmp eq ptr %1, null
  br i1 %.not, label %22, label %5

5:                                                ; preds = %2
  %6 = getelementptr inbounds nuw i8, ptr %1, i64 2658
  %7 = load i64, ptr %6, align 2
  %8 = and i64 %7, 2147483648
  %.not22 = icmp eq i64 %8, 0
  br i1 %.not22, label %22, label %9

9:                                                ; preds = %5
  %10 = getelementptr inbounds nuw i8, ptr %1, i64 4864
  %11 = load ptr, ptr %10, align 8, !tbaa !109
  %.not23 = icmp eq ptr %11, null
  br i1 %.not23, label %16, label %12

12:                                               ; preds = %9
  %13 = getelementptr inbounds nuw i8, ptr %11, i64 8
  %14 = load i32, ptr %13, align 8, !tbaa !110
  %15 = icmp sgt i32 %14, 0
  br i1 %15, label %16, label %22

16:                                               ; preds = %9, %12
  %17 = load ptr, ptr %0, align 8, !tbaa !112
  %18 = getelementptr inbounds nuw i8, ptr %17, i64 12
  %19 = load i32, ptr %18, align 4, !tbaa !113
  %20 = icmp sgt i32 %19, 0
  br i1 %20, label %21, label %22

21:                                               ; preds = %16
  tail call void (ptr, ptr, ptr, ...) @Curl_trc_cf_infof(ptr noundef nonnull %1, ptr noundef nonnull %0, ptr noundef nonnull @.str.24) #10
  %.val.pre = load ptr, ptr %3, align 8, !tbaa !105
  br label %22

22:                                               ; preds = %21, %16, %12, %5, %2
  %.val = phi ptr [ %.val.pre, %21 ], [ %4, %16 ], [ %4, %12 ], [ %4, %5 ], [ %4, %2 ]
  %23 = getelementptr inbounds nuw i8, ptr %.val, i64 32
  br label %24

24:                                               ; preds = %baller_free.exit.i, %22
  %25 = phi i1 [ true, %22 ], [ false, %baller_free.exit.i ]
  %.01.i = phi i64 [ 0, %22 ], [ 1, %baller_free.exit.i ]
  %26 = getelementptr inbounds nuw [2 x ptr], ptr %23, i64 0, i64 %.01.i
  %27 = load ptr, ptr %26, align 8, !tbaa !115
  %.not.i.i = icmp eq ptr %27, null
  br i1 %.not.i.i, label %baller_free.exit.i, label %28

28:                                               ; preds = %24
  %29 = getelementptr inbounds nuw i8, ptr %27, i64 40
  %30 = load ptr, ptr %29, align 8, !tbaa !117
  %.not.i.i.i = icmp eq ptr %30, null
  br i1 %.not.i.i.i, label %baller_close.exit.i.i, label %31

31:                                               ; preds = %28
  tail call void @Curl_conn_cf_discard_chain(ptr noundef nonnull %29, ptr noundef %1) #10
  br label %baller_close.exit.i.i

baller_close.exit.i.i:                            ; preds = %31, %28
  %32 = load ptr, ptr @Curl_cfree, align 8, !tbaa !120
  tail call void %32(ptr noundef nonnull %27) #10
  br label %baller_free.exit.i

baller_free.exit.i:                               ; preds = %baller_close.exit.i.i, %24
  store ptr null, ptr %26, align 8, !tbaa !115
  br i1 %25, label %24, label %33, !llvm.loop !121

33:                                               ; preds = %baller_free.exit.i
  %34 = getelementptr inbounds nuw i8, ptr %.val, i64 48
  %35 = load ptr, ptr %34, align 8, !tbaa !122
  %.not.i10.i = icmp eq ptr %35, null
  br i1 %.not.i10.i, label %cf_he_ctx_clear.exit, label %36

36:                                               ; preds = %33
  %37 = getelementptr inbounds nuw i8, ptr %35, i64 40
  %38 = load ptr, ptr %37, align 8, !tbaa !117
  %.not.i.i11.i = icmp eq ptr %38, null
  br i1 %.not.i.i11.i, label %baller_close.exit.i12.i, label %39

39:                                               ; preds = %36
  tail call void @Curl_conn_cf_discard_chain(ptr noundef nonnull %37, ptr noundef %1) #10
  br label %baller_close.exit.i12.i

baller_close.exit.i12.i:                          ; preds = %39, %36
  %40 = load ptr, ptr @Curl_cfree, align 8, !tbaa !120
  tail call void %40(ptr noundef nonnull %35) #10
  br label %cf_he_ctx_clear.exit

cf_he_ctx_clear.exit:                             ; preds = %33, %baller_close.exit.i12.i
  store ptr null, ptr %34, align 8, !tbaa !122
  %41 = getelementptr inbounds nuw i8, ptr %0, i64 36
  %42 = load i8, ptr %41, align 4
  %43 = and i8 %42, -2
  store i8 %43, ptr %41, align 4
  %44 = getelementptr inbounds nuw i8, ptr %4, i64 24
  store i32 0, ptr %44, align 8, !tbaa !126
  %45 = getelementptr inbounds nuw i8, ptr %0, i64 8
  %46 = load ptr, ptr %45, align 8, !tbaa !160
  %.not24 = icmp eq ptr %46, null
  br i1 %.not24, label %51, label %47

47:                                               ; preds = %cf_he_ctx_clear.exit
  %48 = load ptr, ptr %46, align 8, !tbaa !112
  %49 = getelementptr inbounds nuw i8, ptr %48, i64 32
  %50 = load ptr, ptr %49, align 8, !tbaa !167
  tail call void %50(ptr noundef nonnull %46, ptr noundef %1) #10
  tail call void @Curl_conn_cf_discard_chain(ptr noundef nonnull %45, ptr noundef %1) #10
  br label %51

51:                                               ; preds = %47, %cf_he_ctx_clear.exit
  ret void
}